target datalayout = "e-m:e-p270:32:32-p271:32:32-p272:64:64-i64:64-i128:128-f80:128-n8:16:32:64-S128"
target triple = "x86_64-pc-linux-gnu"

%struct.___itt_global = type { [8 x i8], i64, i64, i64, i64, i64, i64, %union.pthread_mutex_t, ptr, ptr, ptr, ptr, ptr, ptr, ptr, ptr, i32, ptr, i32, ptr, ptr }
%union.pthread_mutex_t = type { %struct.__pthread_mutex_s }
%struct.__pthread_mutex_s = type { i32, i32, i32, i32, i32, i16, i16, %struct.__pthread_internal_list }
%struct.__pthread_internal_list = type { ptr, ptr }

@__itt_track_create_ptr__3_0 = global ptr @_ZL27__itt_track_create_init_3_0P18___itt_track_groupP20___itt_string_handle17___itt_track_type, align 8

; Function Attrs: mustprogress sspstrong uwtable
define internal noundef ptr @_ZL27__itt_track_create_init_3_0P18___itt_track_groupP20___itt_string_handle17___itt_track_type(ptr noundef %0, ptr noundef %1, i32 noundef %2) #0 {
  %4 = alloca ptr, align 8
  %5 = alloca ptr, align 8
  %6 = alloca ptr, align 8
  %7 = alloca i32, align 4
  store ptr %0, ptr %5, align 8, !tbaa !63
  store ptr %1, ptr %6, align 8, !tbaa !36
  store i32 %2, ptr %7, align 4, !tbaa !65
  %8 = load volatile i64, ptr getelementptr inbounds nuw (%struct.___itt_global, ptr @__itt__ittapi_global, i32 0, i32 4), align 8, !tbaa !3
  %9 = icmp ne i64 %8, 0
  br i1 %9, label %14, label %10

10:                                               ; preds = %3
  %11 = load ptr, ptr getelementptr inbounds nuw (%struct.___itt_global, ptr @__itt__ittapi_global, i32 0, i32 13), align 8, !tbaa !21
  %12 = icmp eq ptr %11, null
  br i1 %12, label %13, label %14

13:                                               ; preds = %10
  call void @ITT_DoOneTimeInitialization()
  br label %14

14:                                               ; preds = %13, %10, %3
  %15 = load ptr, ptr @__itt_track_create_ptr__3_0, align 8, !tbaa !22
  %16 = icmp ne ptr %15, null
  br i1 %16, label %17, label %26

17:                                               ; preds = %14
  %18 = load ptr, ptr @__itt_track_create_ptr__3_0, align 8, !tbaa !22
  %19 = icmp ne ptr %18, @_ZL27__itt_track_create_init_3_0P18___itt_track_groupP20___itt_string_handle17___itt_track_type
  br i1 %19, label %20, label %26

20:                                               ; preds = %17
  %21 = load ptr, ptr @__itt_track_create_ptr__3_0, align 8, !tbaa !22
  %22 = load ptr, ptr %5, align 8, !tbaa !63
  %23 = load ptr, ptr %6, align 8, !tbaa !36
  %24 = load i32, ptr %7, align 4, !tbaa !65
  %25 = call ptr %21(ptr noundef %22, ptr noundef %23, i32 noundef %24)
  store ptr %25, ptr %4, align 8
  br label %27

26:                                               ; preds = %17, %14
  store ptr null, ptr %4, align 8
  br label %27

27:                                               ; preds = %26, %20
  %28 = load ptr, ptr %4, align 8
  ret ptr %28
}