; Function Attrs: mustprogress sspstrong uwtable
define internal noundef ptr @_ZL27__itt_track_create_init_3_0P18___itt_track_groupP20___itt_string_handle17___itt_track_type(ptr noundef %0, ptr noundef %1, i32 noundef %2) #0 {
  %4 = load volatile i64, ptr getelementptr inbounds nuw (i8, ptr @__itt__ittapi_global, i64 32), align 8, !tbaa !3
  %5 = icmp eq i64 %4, 0
  %6 = load ptr, ptr getelementptr inbounds nuw (i8, ptr @__itt__ittapi_global, i64 136), align 8
  %7 = icmp eq ptr %6, null
  %or.cond = select i1 %5, i1 %7, i1 false
  br i1 %or.cond, label %8, label %9

8:                                                ; preds = %3
  tail call void @ITT_DoOneTimeInitialization()
  br label %9

9:                                                ; preds = %8, %3
  %10 = load ptr, ptr @__itt_track_create_ptr__3_0, align 8, !tbaa !21
  %11 = icmp ne ptr %10, null
  %12 = icmp ne ptr %10, @_ZL27__itt_track_create_init_3_0P18___itt_track_groupP20___itt_string_handle17___itt_track_type
  %or.cond3 = and i1 %11, %12
  br i1 %or.cond3, label %13, label %15

13:                                               ; preds = %9
  %14 = tail call ptr %10(ptr noundef %0, ptr noundef %1, i32 noundef %2)
  br label %15

15:                                               ; preds = %9, %13
  %.0 = phi ptr [ %14, %13 ], [ null, %9 ]
  ret ptr %.0
}